target datalayout = "e-m:e-p270:32:32-p271:32:32-p272:64:64-i64:64-i128:128-f80:128-n8:16:32:64-S128"
target triple = "x86_64-pc-linux-gnu"

@.str.358 = private unnamed_addr constant [3 x i8] c"On\00", align 1
@.str.360 = private unnamed_addr constant [46 x i8] c"../cpython/Modules/_testlimitedcapi/unicode.c\00", align 1
@.str.367 = private unnamed_addr constant [17 x i8] c"PyErr_Occurred()\00", align 1
@.str.368 = private unnamed_addr constant [18 x i8] c"!PyErr_Occurred()\00", align 1
@__PRETTY_FUNCTION__.unicode_aswidechar_null = private unnamed_addr constant [58 x i8] c"PyObject *unicode_aswidechar_null(PyObject *, PyObject *)\00", align 1

; Function Attrs: nounwind uwtable
define internal ptr @unicode_aswidechar_null(ptr noundef %0, ptr noundef %1) #0 {
  %3 = alloca ptr, align 8
  %4 = alloca ptr, align 8
  %5 = alloca ptr, align 8
  %6 = alloca ptr, align 8
  %7 = alloca i64, align 8
  %8 = alloca i32, align 4
  %9 = alloca i64, align 8
  store ptr %0, ptr %4, align 8, !tbaa !3
  store ptr %1, ptr %5, align 8, !tbaa !3
  call void @llvm.lifetime.start.p0(i64 8, ptr %6) #7
  call void @llvm.lifetime.start.p0(i64 8, ptr %7) #7
  %10 = load ptr, ptr %5, align 8, !tbaa !3
  %11 = call i32 (ptr, ptr, ...) @PyArg_ParseTuple(ptr noundef %10, ptr noundef @.str.358, ptr noundef %6, ptr noundef %7)
  %12 = icmp ne i32 %11, 0
  br i1 %12, label %14, label %13

13:                                               ; preds = %2
  store ptr null, ptr %3, align 8
  store i32 1, ptr %8, align 4
  br label %48

14:                                               ; preds = %2
  br label %15

15:                                               ; preds = %14
  %16 = load ptr, ptr %6, align 8, !tbaa !3
  %17 = call ptr @Py_GetConstantBorrowed(i32 noundef 0)
  %18 = icmp eq ptr %16, %17
  br i1 %18, label %19, label %20

19:                                               ; preds = %15
  store ptr null, ptr %6, align 8, !tbaa !3
  br label %20

20:                                               ; preds = %19, %15
  br label %21

21:                                               ; preds = %20
  br label %22

22:                                               ; preds = %21
  br label %23

23:                                               ; preds = %22
  call void @llvm.lifetime.start.p0(i64 8, ptr %9) #7
  %24 = load ptr, ptr %6, align 8, !tbaa !3
  %25 = load i64, ptr %7, align 8, !tbaa !12
  %26 = call i64 @PyUnicode_AsWideChar(ptr noundef %24, ptr noundef null, i64 noundef %25)
  store i64 %26, ptr %9, align 8, !tbaa !12
  %27 = load i64, ptr %9, align 8, !tbaa !12
  %28 = icmp eq i64 %27, -1
  br i1 %28, label %29, label %36

29:                                               ; preds = %23
  %30 = call ptr @PyErr_Occurred()
  %31 = icmp ne ptr %30, null
  br i1 %31, label %32, label %33

32:                                               ; preds = %29
  br label %35

33:                                               ; preds = %29
  call void @__assert_fail(ptr noundef @.str.367, ptr noundef @.str.360, i32 noundef 426, ptr noundef @__PRETTY_FUNCTION__.unicode_aswidechar_null) #8
  unreachable

34:                                               ; No predecessors!
  br label %35

35:                                               ; preds = %34, %32
  store ptr null, ptr %3, align 8
  store i32 1, ptr %8, align 4
  br label %45

36:                                               ; preds = %23
  %37 = call ptr @PyErr_Occurred()
  %38 = icmp ne ptr %37, null
  br i1 %38, label %40, label %39

39:                                               ; preds = %36
  br label %42

40:                                               ; preds = %36
  call void @__assert_fail(ptr noundef @.str.368, ptr noundef @.str.360, i32 noundef 426, ptr noundef @__PRETTY_FUNCTION__.unicode_aswidechar_null) #8
  unreachable

41:                                               ; No predecessors!
  br label %42

42:                                               ; preds = %41, %39
  %43 = load i64, ptr %9, align 8, !tbaa !12
  %44 = call ptr @PyLong_FromSsize_t(i64 noundef %43)
  store ptr %44, ptr %3, align 8
  store i32 1, ptr %8, align 4
  br label %45

45:                                               ; preds = %42, %35
  call void @llvm.lifetime.end.p0(i64 8, ptr %9) #7
  br label %48

46:                                               ; No predecessors!
  br label %47

47:                                               ; preds = %46
  store i32 0, ptr %8, align 4
  br label %48

48:                                               ; preds = %47, %45, %13
  call void @llvm.lifetime.end.p0(i64 8, ptr %7) #7
  call void @llvm.lifetime.end.p0(i64 8, ptr %6) #7
  %49 = load i32, ptr %8, align 4
  switch i32 %49, label %52 [
    i32 0, label %50
    i32 1, label %50
  ]

50:                                               ; preds = %48, %48
  %51 = load ptr, ptr %3, align 8
  ret ptr %51

52:                                               ; preds = %48
  unreachable
}