; Function Attrs: nounwind uwtable
define internal ptr @unicode_aswidechar_null(ptr readnone captures(none) %0, ptr noundef %1) #0 {
  %3 = alloca ptr, align 8
  %4 = alloca i64, align 8
  call void @llvm.lifetime.start.p0(i64 8, ptr nonnull %3) #4
  call void @llvm.lifetime.start.p0(i64 8, ptr nonnull %4) #4
  %5 = call i32 (ptr, ptr, ...) @PyArg_ParseTuple(ptr noundef %1, ptr noundef nonnull @.str.358, ptr noundef nonnull %3, ptr noundef nonnull %4) #4
  %.not = icmp eq i32 %5, 0
  br i1 %.not, label %23, label %6

6:                                                ; preds = %2
  %7 = load ptr, ptr %3, align 8, !tbaa !8
  %8 = call ptr @Py_GetConstantBorrowed(i32 noundef 0) #4
  %9 = icmp eq ptr %7, %8
  br i1 %9, label %10, label %._crit_edge

._crit_edge:                                      ; preds = %6
  %.pre = load ptr, ptr %3, align 8, !tbaa !8
  br label %11

10:                                               ; preds = %6
  store ptr null, ptr %3, align 8, !tbaa !8
  br label %11

11:                                               ; preds = %._crit_edge, %10
  %12 = phi ptr [ %.pre, %._crit_edge ], [ null, %10 ]
  %13 = load i64, ptr %4, align 8, !tbaa !10
  %14 = call i64 @PyUnicode_AsWideChar(ptr noundef %12, ptr noundef null, i64 noundef %13) #4
  %15 = icmp eq i64 %14, -1
  %16 = call ptr @PyErr_Occurred() #4
  %.not5 = icmp eq ptr %16, null
  br i1 %15, label %17, label %19

17:                                               ; preds = %11
  br i1 %.not5, label %18, label %23

18:                                               ; preds = %17
  call void @__assert_fail(ptr noundef nonnull @.str.367, ptr noundef nonnull @.str.360, i32 noundef 426, ptr noundef nonnull @__PRETTY_FUNCTION__.unicode_aswidechar_null) #5
  unreachable

19:                                               ; preds = %11
  br i1 %.not5, label %21, label %20

20:                                               ; preds = %19
  call void @__assert_fail(ptr noundef nonnull @.str.368, ptr noundef nonnull @.str.360, i32 noundef 426, ptr noundef nonnull @__PRETTY_FUNCTION__.unicode_aswidechar_null) #5
  unreachable

21:                                               ; preds = %19
  %22 = call ptr @PyLong_FromSsize_t(i64 noundef %14) #4
  br label %23

23:                                               ; preds = %21, %17, %2
  %.0 = phi ptr [ null, %2 ], [ %22, %21 ], [ null, %17 ]
  call void @llvm.lifetime.end.p0(i64 8, ptr nonnull %4) #4
  call void @llvm.lifetime.end.p0(i64 8, ptr nonnull %3) #4
  ret ptr %.0
}